target datalayout = "e-m:e-p270:32:32-p271:32:32-p272:64:64-i64:64-i128:128-f80:128-n8:16:32:64-S128"
target triple = "x86_64-pc-linux-gnu"

%struct.global_State = type { ptr, ptr, %struct.GCState, %struct.GCstr, i8, i8, i8, i8, %struct.StrInternState, i32, %struct.GCRef, %struct.SBuf, %union.TValue, %union.TValue, %struct.Node, %union.TValue, %struct.GCupval, i32, i32, ptr, ptr, ptr, i32, i32, %struct.GCRef, %struct.MRef, %struct.MRef, %struct.PRNGState, [39 x %struct.GCRef] }
%struct.GCState = type { i64, i64, i8, i8, i8, i8, i32, %struct.GCRef, %struct.MRef, %struct.GCRef, %struct.GCRef, %struct.GCRef, %struct.GCRef, i64, i64, i32, i32, %struct.MRef }
%struct.GCstr = type { %struct.GCRef, i8, i8, i8, i8, i32, i32, i32 }
%struct.StrInternState = type { ptr, i32, i32, i32, i8, i8, i8, i8, i64 }
%struct.SBuf = type { ptr, ptr, ptr, %struct.MRef }
%struct.Node = type { %union.TValue, %union.TValue, %struct.MRef }
%union.TValue = type { i64 }
%struct.GCupval = type { %struct.GCRef, i8, i8, i8, i8, %union.anon, %struct.MRef, i32 }
%union.anon = type { %struct.anon.1 }
%struct.anon.1 = type { %struct.GCRef, %struct.GCRef }
%struct.GCRef = type { i64 }
%struct.MRef = type { i64 }
%struct.PRNGState = type { [4 x i64] }
%struct.lua_State = type { %struct.GCRef, i8, i8, i8, i8, %struct.MRef, %struct.GCRef, ptr, ptr, %struct.MRef, %struct.MRef, %struct.GCRef, %struct.GCRef, ptr, i32 }
%struct.GCfuncL = type { %struct.GCRef, i8, i8, i8, i8, %struct.GCRef, %struct.GCRef, %struct.MRef, [1 x %struct.GCRef] }
%struct.GCproto = type { %struct.GCRef, i8, i8, i8, i8, i32, i32, %struct.GCRef, %struct.MRef, %struct.MRef, i32, i32, i32, i8, i8, i16, %struct.GCRef, i32, i32, %struct.MRef, %struct.MRef, %struct.MRef }

; Function Attrs: nounwind uwtable
define hidden i32 @lj_gc_step(ptr noundef %0) #0 {
  %2 = alloca i32, align 4
  %3 = alloca ptr, align 8
  %4 = alloca ptr, align 8
  %5 = alloca i64, align 8
  %6 = alloca i32, align 4
  %7 = alloca i32, align 4
  store ptr %0, ptr %3, align 8, !tbaa !37
  call void @llvm.lifetime.start.p0(i64 8, ptr %4) #7
  %8 = load ptr, ptr %3, align 8, !tbaa !37
  %9 = getelementptr inbounds nuw %struct.lua_State, ptr %8, i32 0, i32 5
  %10 = getelementptr inbounds nuw %struct.MRef, ptr %9, i32 0, i32 0
  %11 = load i64, ptr %10, align 8, !tbaa !39
  %12 = inttoptr i64 %11 to ptr
  store ptr %12, ptr %4, align 8, !tbaa !4
  call void @llvm.lifetime.start.p0(i64 8, ptr %5) #7
  call void @llvm.lifetime.start.p0(i64 4, ptr %6) #7
  %13 = load ptr, ptr %4, align 8, !tbaa !4
  %14 = getelementptr inbounds nuw %struct.global_State, ptr %13, i32 0, i32 9
  %15 = load volatile i32, ptr %14, align 8, !tbaa !80
  store i32 %15, ptr %6, align 4, !tbaa !9
  %16 = load ptr, ptr %4, align 8, !tbaa !4
  %17 = getelementptr inbounds nuw %struct.global_State, ptr %16, i32 0, i32 9
  store volatile i32 -3, ptr %17, align 8, !tbaa !80
  %18 = load ptr, ptr %4, align 8, !tbaa !4
  %19 = getelementptr inbounds nuw %struct.global_State, ptr %18, i32 0, i32 2
  %20 = getelementptr inbounds nuw %struct.GCState, ptr %19, i32 0, i32 15
  %21 = load i32, ptr %20, align 8, !tbaa !81
  %22 = mul i32 10, %21
  %23 = zext i32 %22 to i64
  store i64 %23, ptr %5, align 8, !tbaa !11
  %24 = load i64, ptr %5, align 8, !tbaa !11
  %25 = icmp eq i64 %24, 0
  br i1 %25, label %26, label %27

26:                                               ; preds = %1
  store i64 140737488355328, ptr %5, align 8, !tbaa !11
  br label %27

27:                                               ; preds = %26, %1
  %28 = load ptr, ptr %4, align 8, !tbaa !4
  %29 = getelementptr inbounds nuw %struct.global_State, ptr %28, i32 0, i32 2
  %30 = getelementptr inbounds nuw %struct.GCState, ptr %29, i32 0, i32 0
  %31 = load i64, ptr %30, align 8, !tbaa !82
  %32 = load ptr, ptr %4, align 8, !tbaa !4
  %33 = getelementptr inbounds nuw %struct.global_State, ptr %32, i32 0, i32 2
  %34 = getelementptr inbounds nuw %struct.GCState, ptr %33, i32 0, i32 1
  %35 = load i64, ptr %34, align 8, !tbaa !56
  %36 = icmp ugt i64 %31, %35
  br i1 %36, label %37, label %52

37:                                               ; preds = %27
  %38 = load ptr, ptr %4, align 8, !tbaa !4
  %39 = getelementptr inbounds nuw %struct.global_State, ptr %38, i32 0, i32 2
  %40 = getelementptr inbounds nuw %struct.GCState, ptr %39, i32 0, i32 0
  %41 = load i64, ptr %40, align 8, !tbaa !82
  %42 = load ptr, ptr %4, align 8, !tbaa !4
  %43 = getelementptr inbounds nuw %struct.global_State, ptr %42, i32 0, i32 2
  %44 = getelementptr inbounds nuw %struct.GCState, ptr %43, i32 0, i32 1
  %45 = load i64, ptr %44, align 8, !tbaa !56
  %46 = sub i64 %41, %45
  %47 = load ptr, ptr %4, align 8, !tbaa !4
  %48 = getelementptr inbounds nuw %struct.global_State, ptr %47, i32 0, i32 2
  %49 = getelementptr inbounds nuw %struct.GCState, ptr %48, i32 0, i32 13
  %50 = load i64, ptr %49, align 8, !tbaa !83
  %51 = add i64 %50, %46
  store i64 %51, ptr %49, align 8, !tbaa !83
  br label %52

52:                                               ; preds = %37, %27
  br label %53

53:                                               ; preds = %83, %52
  %54 = load ptr, ptr %3, align 8, !tbaa !37
  %55 = call i64 @gc_onestep(ptr noundef %54)
  %56 = load i64, ptr %5, align 8, !tbaa !11
  %57 = sub i64 %56, %55
  store i64 %57, ptr %5, align 8, !tbaa !11
  %58 = load ptr, ptr %4, align 8, !tbaa !4
  %59 = getelementptr inbounds nuw %struct.global_State, ptr %58, i32 0, i32 2
  %60 = getelementptr inbounds nuw %struct.GCState, ptr %59, i32 0, i32 3
  %61 = load i8, ptr %60, align 1, !tbaa !84
  %62 = zext i8 %61 to i32
  %63 = icmp eq i32 %62, 0
  br i1 %63, label %64, label %82

64:                                               ; preds = %53
  %65 = load ptr, ptr %4, align 8, !tbaa !4
  %66 = getelementptr inbounds nuw %struct.global_State, ptr %65, i32 0, i32 2
  %67 = getelementptr inbounds nuw %struct.GCState, ptr %66, i32 0, i32 14
  %68 = load i64, ptr %67, align 8, !tbaa !85
  %69 = udiv i64 %68, 100
  %70 = load ptr, ptr %4, align 8, !tbaa !4
  %71 = getelementptr inbounds nuw %struct.global_State, ptr %70, i32 0, i32 2
  %72 = getelementptr inbounds nuw %struct.GCState, ptr %71, i32 0, i32 16
  %73 = load i32, ptr %72, align 4, !tbaa !86
  %74 = zext i32 %73 to i64
  %75 = mul i64 %69, %74
  %76 = load ptr, ptr %4, align 8, !tbaa !4
  %77 = getelementptr inbounds nuw %struct.global_State, ptr %76, i32 0, i32 2
  %78 = getelementptr inbounds nuw %struct.GCState, ptr %77, i32 0, i32 1
  store i64 %75, ptr %78, align 8, !tbaa !56
  %79 = load i32, ptr %6, align 4, !tbaa !9
  %80 = load ptr, ptr %4, align 8, !tbaa !4
  %81 = getelementptr inbounds nuw %struct.global_State, ptr %80, i32 0, i32 9
  store volatile i32 %79, ptr %81, align 8, !tbaa !80
  store i32 1, ptr %2, align 4
  store i32 1, ptr %7, align 4
  br label %120

82:                                               ; preds = %53
  br label %83

83:                                               ; preds = %82
  %84 = load i64, ptr %5, align 8, !tbaa !11
  %85 = icmp sgt i64 %84, 0
  br i1 %85, label %53, label %86, !llvm.loop !87

86:                                               ; preds = %83
  %87 = load ptr, ptr %4, align 8, !tbaa !4
  %88 = getelementptr inbounds nuw %struct.global_State, ptr %87, i32 0, i32 2
  %89 = getelementptr inbounds nuw %struct.GCState, ptr %88, i32 0, i32 13
  %90 = load i64, ptr %89, align 8, !tbaa !83
  %91 = icmp ult i64 %90, 1024
  br i1 %91, label %92, label %104

92:                                               ; preds = %86
  %93 = load ptr, ptr %4, align 8, !tbaa !4
  %94 = getelementptr inbounds nuw %struct.global_State, ptr %93, i32 0, i32 2
  %95 = getelementptr inbounds nuw %struct.GCState, ptr %94, i32 0, i32 0
  %96 = load i64, ptr %95, align 8, !tbaa !82
  %97 = add i64 %96, 1024
  %98 = load ptr, ptr %4, align 8, !tbaa !4
  %99 = getelementptr inbounds nuw %struct.global_State, ptr %98, i32 0, i32 2
  %100 = getelementptr inbounds nuw %struct.GCState, ptr %99, i32 0, i32 1
  store i64 %97, ptr %100, align 8, !tbaa !56
  %101 = load i32, ptr %6, align 4, !tbaa !9
  %102 = load ptr, ptr %4, align 8, !tbaa !4
  %103 = getelementptr inbounds nuw %struct.global_State, ptr %102, i32 0, i32 9
  store volatile i32 %101, ptr %103, align 8, !tbaa !80
  store i32 -1, ptr %2, align 4
  store i32 1, ptr %7, align 4
  br label %120

104:                                              ; preds = %86
  %105 = load ptr, ptr %4, align 8, !tbaa !4
  %106 = getelementptr inbounds nuw %struct.global_State, ptr %105, i32 0, i32 2
  %107 = getelementptr inbounds nuw %struct.GCState, ptr %106, i32 0, i32 13
  %108 = load i64, ptr %107, align 8, !tbaa !83
  %109 = sub i64 %108, 1024
  store i64 %109, ptr %107, align 8, !tbaa !83
  %110 = load ptr, ptr %4, align 8, !tbaa !4
  %111 = getelementptr inbounds nuw %struct.global_State, ptr %110, i32 0, i32 2
  %112 = getelementptr inbounds nuw %struct.GCState, ptr %111, i32 0, i32 0
  %113 = load i64, ptr %112, align 8, !tbaa !82
  %114 = load ptr, ptr %4, align 8, !tbaa !4
  %115 = getelementptr inbounds nuw %struct.global_State, ptr %114, i32 0, i32 2
  %116 = getelementptr inbounds nuw %struct.GCState, ptr %115, i32 0, i32 1
  store i64 %113, ptr %116, align 8, !tbaa !56
  %117 = load i32, ptr %6, align 4, !tbaa !9
  %118 = load ptr, ptr %4, align 8, !tbaa !4
  %119 = getelementptr inbounds nuw %struct.global_State, ptr %118, i32 0, i32 9
  store volatile i32 %117, ptr %119, align 8, !tbaa !80
  store i32 0, ptr %2, align 4
  store i32 1, ptr %7, align 4
  br label %120

120:                                              ; preds = %104, %92, %64
  call void @llvm.lifetime.end.p0(i64 4, ptr %6) #7
  call void @llvm.lifetime.end.p0(i64 8, ptr %5) #7
  call void @llvm.lifetime.end.p0(i64 8, ptr %4) #7
  %121 = load i32, ptr %2, align 4
  ret i32 %121
}

; Function Attrs: nounwind uwtable
define hidden i32 @lj_gc_step_jit(ptr noundef %0, i32 noundef %1) #0 {
  %3 = alloca ptr, align 8
  %4 = alloca i32, align 4
  %5 = alloca ptr, align 8
  store ptr %0, ptr %3, align 8, !tbaa !4
  store i32 %1, ptr %4, align 4, !tbaa !9
  call void @llvm.lifetime.start.p0(i64 8, ptr %5) #7
  %6 = load ptr, ptr %3, align 8, !tbaa !4
  %7 = getelementptr inbounds nuw %struct.global_State, ptr %6, i32 0, i32 24
  %8 = getelementptr inbounds nuw %struct.GCRef, ptr %7, i32 0, i32 0
  %9 = load i64, ptr %8, align 8, !tbaa !96
  %10 = inttoptr i64 %9 to ptr
  store ptr %10, ptr %5, align 8, !tbaa !37
  %11 = load ptr, ptr %5, align 8, !tbaa !37
  %12 = getelementptr inbounds nuw %struct.lua_State, ptr %11, i32 0, i32 5
  %13 = getelementptr inbounds nuw %struct.MRef, ptr %12, i32 0, i32 0
  %14 = load i64, ptr %13, align 8, !tbaa !39
  %15 = inttoptr i64 %14 to ptr
  %16 = getelementptr inbounds nuw %struct.global_State, ptr %15, i32 0, i32 25
  %17 = getelementptr inbounds nuw %struct.MRef, ptr %16, i32 0, i32 0
  %18 = load i64, ptr %17, align 8, !tbaa !89
  %19 = inttoptr i64 %18 to ptr
  %20 = load ptr, ptr %5, align 8, !tbaa !37
  %21 = getelementptr inbounds nuw %struct.lua_State, ptr %20, i32 0, i32 7
  store ptr %19, ptr %21, align 8, !tbaa !93
  %22 = load ptr, ptr %5, align 8, !tbaa !37
  %23 = getelementptr inbounds nuw %struct.lua_State, ptr %22, i32 0, i32 7
  %24 = load ptr, ptr %23, align 8, !tbaa !93
  %25 = load ptr, ptr %5, align 8, !tbaa !37
  %26 = getelementptr inbounds nuw %struct.lua_State, ptr %25, i32 0, i32 7
  %27 = load ptr, ptr %26, align 8, !tbaa !93
  %28 = getelementptr inbounds %union.TValue, ptr %27, i64 -2
  %29 = getelementptr inbounds nuw %struct.GCRef, ptr %28, i32 0, i32 0
  %30 = load i64, ptr %29, align 8, !tbaa !30
  %31 = and i64 %30, 140737488355327
  %32 = inttoptr i64 %31 to ptr
  %33 = getelementptr inbounds nuw %struct.GCfuncL, ptr %32, i32 0, i32 7
  %34 = getelementptr inbounds nuw %struct.MRef, ptr %33, i32 0, i32 0
  %35 = load i64, ptr %34, align 8, !tbaa !30
  %36 = inttoptr i64 %35 to ptr
  %37 = getelementptr inbounds i8, ptr %36, i64 -104
  %38 = getelementptr inbounds nuw %struct.GCproto, ptr %37, i32 0, i32 4
  %39 = load i8, ptr %38, align 1, !tbaa !94
  %40 = zext i8 %39 to i32
  %41 = sext i32 %40 to i64
  %42 = getelementptr inbounds %union.TValue, ptr %24, i64 %41
  %43 = load ptr, ptr %5, align 8, !tbaa !37
  %44 = getelementptr inbounds nuw %struct.lua_State, ptr %43, i32 0, i32 8
  store ptr %42, ptr %44, align 8, !tbaa !71
  br label %45

45:                                               ; preds = %55, %2
  %46 = load i32, ptr %4, align 4, !tbaa !9
  %47 = add i32 %46, -1
  store i32 %47, ptr %4, align 4, !tbaa !9
  %48 = icmp ugt i32 %46, 0
  br i1 %48, label %49, label %53

49:                                               ; preds = %45
  %50 = load ptr, ptr %5, align 8, !tbaa !37
  %51 = call i32 @lj_gc_step(ptr noundef %50)
  %52 = icmp eq i32 %51, 0
  br label %53

53:                                               ; preds = %49, %45
  %54 = phi i1 [ false, %45 ], [ %52, %49 ]
  br i1 %54, label %55, label %56

55:                                               ; preds = %53
  br label %45, !llvm.loop !97

56:                                               ; preds = %53
  %57 = load ptr, ptr %5, align 8, !tbaa !37
  %58 = getelementptr inbounds nuw %struct.lua_State, ptr %57, i32 0, i32 5
  %59 = getelementptr inbounds nuw %struct.MRef, ptr %58, i32 0, i32 0
  %60 = load i64, ptr %59, align 8, !tbaa !39
  %61 = inttoptr i64 %60 to ptr
  %62 = getelementptr inbounds nuw %struct.global_State, ptr %61, i32 0, i32 2
  %63 = getelementptr inbounds nuw %struct.GCState, ptr %62, i32 0, i32 3
  %64 = load i8, ptr %63, align 1, !tbaa !84
  %65 = zext i8 %64 to i32
  %66 = icmp eq i32 %65, 2
  br i1 %66, label %78, label %67

67:                                               ; preds = %56
  %68 = load ptr, ptr %5, align 8, !tbaa !37
  %69 = getelementptr inbounds nuw %struct.lua_State, ptr %68, i32 0, i32 5
  %70 = getelementptr inbounds nuw %struct.MRef, ptr %69, i32 0, i32 0
  %71 = load i64, ptr %70, align 8, !tbaa !39
  %72 = inttoptr i64 %71 to ptr
  %73 = getelementptr inbounds nuw %struct.global_State, ptr %72, i32 0, i32 2
  %74 = getelementptr inbounds nuw %struct.GCState, ptr %73, i32 0, i32 3
  %75 = load i8, ptr %74, align 1, !tbaa !84
  %76 = zext i8 %75 to i32
  %77 = icmp eq i32 %76, 5
  br label %78

78:                                               ; preds = %67, %56
  %79 = phi i1 [ true, %56 ], [ %77, %67 ]
  %80 = zext i1 %79 to i32
  call void @llvm.lifetime.end.p0(i64 8, ptr %5) #7
  ret i32 %80
}