; Function Attrs: nounwind uwtable
define hidden range(i32 0, 2) i32 @lj_gc_step_jit(ptr noundef readonly captures(none) %0, i32 noundef %1) local_unnamed_addr #0 {
  %3 = getelementptr inbounds nuw i8, ptr %0, i64 368
  %4 = load i64, ptr %3, align 8, !tbaa !97
  %5 = inttoptr i64 %4 to ptr
  %6 = getelementptr inbounds nuw i8, ptr %5, i64 16
  %7 = load i64, ptr %6, align 8, !tbaa !30
  %8 = inttoptr i64 %7 to ptr
  %9 = getelementptr inbounds nuw i8, ptr %8, i64 376
  %10 = load i64, ptr %9, align 8, !tbaa !76
  %11 = inttoptr i64 %10 to ptr
  %12 = getelementptr inbounds nuw i8, ptr %5, i64 32
  store ptr %11, ptr %12, align 8, !tbaa !94
  %13 = getelementptr inbounds i8, ptr %11, i64 -16
  %14 = load i64, ptr %13, align 8, !tbaa !23
  %15 = and i64 %14, 140737488355327
  %16 = inttoptr i64 %15 to ptr
  %17 = getelementptr inbounds nuw i8, ptr %16, i64 32
  %18 = load i64, ptr %17, align 8, !tbaa !23
  %19 = inttoptr i64 %18 to ptr
  %20 = getelementptr inbounds i8, ptr %19, i64 -93
  %21 = load i8, ptr %20, align 1, !tbaa !95
  %22 = zext i8 %21 to i64
  %23 = getelementptr inbounds nuw %union.TValue, ptr %11, i64 %22
  %24 = getelementptr inbounds nuw i8, ptr %5, i64 40
  store ptr %23, ptr %24, align 8, !tbaa !57
  %.not21 = icmp eq i32 %1, 0
  br i1 %.not21, label %.critedge, label %.lr.ph

.lr.ph:                                           ; preds = %2, %lj_gc_step.exit
  %.022 = phi i32 [ %25, %lj_gc_step.exit ], [ %1, %2 ]
  %25 = add i32 %.022, -1
  %26 = load i64, ptr %6, align 8, !tbaa !30
  %27 = inttoptr i64 %26 to ptr
  %28 = getelementptr inbounds nuw i8, ptr %27, i64 184
  %29 = load volatile i32, ptr %28, align 8, !tbaa !66
  store volatile i32 -3, ptr %28, align 8, !tbaa !66
  %30 = getelementptr inbounds nuw i8, ptr %27, i64 16
  %31 = getelementptr inbounds nuw i8, ptr %27, i64 104
  %32 = load i32, ptr %31, align 8, !tbaa !67
  %33 = mul i32 %32, 10
  %34 = zext i32 %33 to i64
  %35 = icmp eq i32 %33, 0
  %spec.store.select.i = select i1 %35, i64 140737488355328, i64 %34
  %36 = load i64, ptr %30, align 8, !tbaa !68
  %37 = getelementptr inbounds nuw i8, ptr %27, i64 24
  %38 = load i64, ptr %37, align 8, !tbaa !41
  %39 = icmp ugt i64 %36, %38
  br i1 %39, label %40, label %45

40:                                               ; preds = %.lr.ph
  %41 = sub nuw i64 %36, %38
  %42 = getelementptr inbounds nuw i8, ptr %27, i64 88
  %43 = load i64, ptr %42, align 8, !tbaa !69
  %44 = add i64 %41, %43
  store i64 %44, ptr %42, align 8, !tbaa !69
  br label %45

45:                                               ; preds = %40, %.lr.ph
  %46 = getelementptr inbounds nuw i8, ptr %27, i64 33
  br label %47

47:                                               ; preds = %59, %45
  %.029.i = phi i64 [ %spec.store.select.i, %45 ], [ %60, %59 ]
  %48 = tail call fastcc i64 @gc_onestep(ptr noundef %5)
  %49 = load i8, ptr %46, align 1, !tbaa !70
  %50 = icmp eq i8 %49, 0
  br i1 %50, label %51, label %59

51:                                               ; preds = %47
  %52 = getelementptr inbounds nuw i8, ptr %27, i64 96
  %53 = load i64, ptr %52, align 8, !tbaa !71
  %54 = udiv i64 %53, 100
  %55 = getelementptr inbounds nuw i8, ptr %27, i64 108
  %56 = load i32, ptr %55, align 4, !tbaa !72
  %57 = zext i32 %56 to i64
  %58 = mul i64 %54, %57
  br label %lj_gc_step.exit.thread

59:                                               ; preds = %47
  %60 = sub nsw i64 %.029.i, %48
  %61 = icmp sgt i64 %60, 0
  br i1 %61, label %47, label %62, !llvm.loop !73

62:                                               ; preds = %59
  %63 = getelementptr inbounds nuw i8, ptr %27, i64 88
  %64 = load i64, ptr %63, align 8, !tbaa !69
  %65 = icmp ult i64 %64, 1024
  br i1 %65, label %66, label %lj_gc_step.exit

66:                                               ; preds = %62
  %67 = load i64, ptr %30, align 8, !tbaa !68
  %68 = add i64 %67, 1024
  br label %lj_gc_step.exit.thread

lj_gc_step.exit.thread:                           ; preds = %66, %51
  %.sink.i.ph = phi i64 [ %58, %51 ], [ %68, %66 ]
  store i64 %.sink.i.ph, ptr %37, align 8, !tbaa !41
  store volatile i32 %29, ptr %28, align 8, !tbaa !66
  br label %.critedge

lj_gc_step.exit:                                  ; preds = %62
  %69 = add i64 %64, -1024
  store i64 %69, ptr %63, align 8, !tbaa !69
  %70 = load i64, ptr %30, align 8, !tbaa !68
  store i64 %70, ptr %37, align 8, !tbaa !41
  store volatile i32 %29, ptr %28, align 8, !tbaa !66
  %.not = icmp eq i32 %25, 0
  br i1 %.not, label %.critedge, label %.lr.ph, !llvm.loop !98

.critedge:                                        ; preds = %lj_gc_step.exit, %2, %lj_gc_step.exit.thread
  %71 = load i64, ptr %6, align 8, !tbaa !30
  %72 = inttoptr i64 %71 to ptr
  %73 = getelementptr inbounds nuw i8, ptr %72, i64 33
  %74 = load i8, ptr %73, align 1, !tbaa !70
  %75 = icmp eq i8 %74, 2
  %76 = icmp eq i8 %74, 5
  %narrow = or i1 %75, %76
  %77 = zext i1 %narrow to i32
  ret i32 %77
}